; ModuleID = '54/1099.c'
source_filename = "54/1099.c"
target datalayout = "e-m:e-p270:32:32-p271:32:32-p272:64:64-i64:64-f80:128-n8:16:32:64-S128"
target triple = "x86_64-pc-linux-gnu"

@.str = private unnamed_addr constant [6 x i8] c"%d %d\00", align 1
@.str.1 = private unnamed_addr constant [3 x i8] c"%d\00", align 1

; Function Attrs: noinline nounwind uwtable
define dso_local i32 @main() #0 {
  %1 = alloca i32, align 4
  %2 = alloca i32, align 4
  %3 = alloca i32, align 4
  store i32 0, i32* %1, align 4
  %4 = call i32 (i8*, ...) @__isoc99_scanf(i8* getelementptr inbounds ([6 x i8], [6 x i8]* @.str, i64 0, i64 0), i32* %3, i32* %2)
  %5 = load i32, i32* %3, align 4
  %6 = load i32, i32* %2, align 4
  %7 = call i32 @count(i32 %5, i32 %6)
  %8 = call i32 (i8*, ...) @printf(i8* getelementptr inbounds ([3 x i8], [3 x i8]* @.str.1, i64 0, i64 0), i32 %7)
  ret i32 0
}

declare dso_local i32 @__isoc99_scanf(i8*, ...) #1

declare dso_local i32 @printf(i8*, ...) #1

; Function Attrs: noinline nounwind uwtable
define dso_local i32 @count(i32 %0, i32 %1) #0 {
  %3 = alloca i32, align 4
  %4 = alloca i32, align 4
  %5 = alloca i32, align 4
  %6 = alloca i32, align 4
  %7 = alloca i32, align 4
  %8 = alloca i32, align 4
  %9 = alloca i32, align 4
  store i32 %0, i32* %3, align 4
  store i32 %1, i32* %4, align 4
  %10 = load i32, i32* %3, align 4
  store i32 %10, i32* %5, align 4
  %11 = load i32, i32* %4, align 4
  store i32 %11, i32* %6, align 4
  store i32 1, i32* %8, align 4
  store i32 0, i32* %7, align 4
  br label %12

12:                                               ; preds = %48, %2
  %13 = load i32, i32* %7, align 4
  %14 = load i32, i32* %5, align 4
  %15 = sub nsw i32 %14, 1
  %16 = icmp slt i32 %13, %15
  br i1 %16, label %17, label %51

17:                                               ; preds = %12
  %18 = load i32, i32* %7, align 4
  %19 = icmp eq i32 %18, 0
  br i1 %19, label %20, label %26

20:                                               ; preds = %17
  %21 = load i32, i32* %8, align 4
  %22 = load i32, i32* %3, align 4
  %23 = mul nsw i32 %21, %22
  %24 = load i32, i32* %6, align 4
  %25 = add nsw i32 %23, %24
  store i32 %25, i32* %9, align 4
  br label %28

26:                                               ; preds = %17
  %27 = load i32, i32* %3, align 4
  store i32 %27, i32* %9, align 4
  br label %28

28:                                               ; preds = %26, %20
  %29 = load i32, i32* %9, align 4
  %30 = load i32, i32* %5, align 4
  %31 = sub nsw i32 %30, 1
  %32 = srem i32 %29, %31
  %33 = icmp ne i32 %32, 0
  br i1 %33, label %34, label %38

34:                                               ; preds = %28
  %35 = load i32, i32* %8, align 4
  %36 = add nsw i32 %35, 1
  store i32 %36, i32* %8, align 4
  store i32 -1, i32* %7, align 4
  %37 = load i32, i32* %5, align 4
  store i32 %37, i32* %3, align 4
  br label %47

38:                                               ; preds = %28
  %39 = load i32, i32* %9, align 4
  %40 = load i32, i32* %5, align 4
  %41 = sub nsw i32 %40, 1
  %42 = sdiv i32 %39, %41
  %43 = load i32, i32* %5, align 4
  %44 = mul nsw i32 %42, %43
  %45 = load i32, i32* %6, align 4
  %46 = add nsw i32 %44, %45
  store i32 %46, i32* %3, align 4
  br label %47

47:                                               ; preds = %38, %34
  br label %48

48:                                               ; preds = %47
  %49 = load i32, i32* %7, align 4
  %50 = add nsw i32 %49, 1
  store i32 %50, i32* %7, align 4
  br label %12

51:                                               ; preds = %12
  %52 = load i32, i32* %3, align 4
  ret i32 %52
}


!llvm.module.flags = !{!0}
!llvm.ident = !{!1}

!0 = !{i32 1, !"wchar_size", i32 4}
!1 = !{!"clang version 10.0.0-4ubuntu1 "}
